; ModuleID = '21/1526.c'
source_filename = "21/1526.c"
target datalayout = "e-m:e-p270:32:32-p271:32:32-p272:64:64-i64:64-f80:128-n8:16:32:64-S128"
target triple = "x86_64-pc-linux-gnu"

@.str = private unnamed_addr constant [3 x i8] c"%d\00", align 1
@.str.1 = private unnamed_addr constant [6 x i8] c"%d,%d\00", align 1

; Function Attrs: noinline nounwind uwtable
define dso_local i32 @main() #0 {
  %1 = alloca i32, align 4
  %2 = alloca i32, align 4
  %3 = alloca i32, align 4
  %4 = alloca [300 x i32], align 16
  %5 = alloca i32, align 4
  %6 = alloca i32, align 4
  %7 = alloca i32, align 4
  %8 = alloca float, align 4
  store i32 0, i32* %1, align 4
  %9 = bitcast [300 x i32]* %4 to i8*
  call void @llvm.memset.p0i8.i64(i8* align 16 %9, i8 0, i64 1200, i1 false)
  %10 = call i32 (i8*, ...) @__isoc99_scanf(i8* getelementptr inbounds ([3 x i8], [3 x i8]* @.str, i64 0, i64 0), i32* %2)
  %11 = getelementptr inbounds [300 x i32], [300 x i32]* %4, i64 0, i64 0
  %12 = call i32 (i8*, ...) @__isoc99_scanf(i8* getelementptr inbounds ([3 x i8], [3 x i8]* @.str, i64 0, i64 0), i32* %11)
  %13 = getelementptr inbounds [300 x i32], [300 x i32]* %4, i64 0, i64 0
  %14 = load i32, i32* %13, align 16
  store i32 %14, i32* %7, align 4
  %15 = getelementptr inbounds [300 x i32], [300 x i32]* %4, i64 0, i64 0
  %16 = load i32, i32* %15, align 16
  store i32 %16, i32* %5, align 4
  %17 = getelementptr inbounds [300 x i32], [300 x i32]* %4, i64 0, i64 0
  %18 = load i32, i32* %17, align 16
  store i32 %18, i32* %6, align 4
  store i32 1, i32* %3, align 4
  br label %19

19:                                               ; preds = %59, %0
  %20 = load i32, i32* %3, align 4
  %21 = load i32, i32* %2, align 4
  %22 = sub nsw i32 %21, 1
  %23 = icmp sle i32 %20, %22
  br i1 %23, label %24, label %62

24:                                               ; preds = %19
  %25 = load i32, i32* %3, align 4
  %26 = sext i32 %25 to i64
  %27 = getelementptr inbounds [300 x i32], [300 x i32]* %4, i64 0, i64 %26
  %28 = call i32 (i8*, ...) @__isoc99_scanf(i8* getelementptr inbounds ([3 x i8], [3 x i8]* @.str, i64 0, i64 0), i32* %27)
  %29 = load i32, i32* %3, align 4
  %30 = sext i32 %29 to i64
  %31 = getelementptr inbounds [300 x i32], [300 x i32]* %4, i64 0, i64 %30
  %32 = load i32, i32* %31, align 4
  %33 = load i32, i32* %5, align 4
  %34 = icmp sgt i32 %32, %33
  br i1 %34, label %35, label %40

35:                                               ; preds = %24
  %36 = load i32, i32* %3, align 4
  %37 = sext i32 %36 to i64
  %38 = getelementptr inbounds [300 x i32], [300 x i32]* %4, i64 0, i64 %37
  %39 = load i32, i32* %38, align 4
  store i32 %39, i32* %5, align 4
  br label %40

40:                                               ; preds = %35, %24
  %41 = load i32, i32* %3, align 4
  %42 = sext i32 %41 to i64
  %43 = getelementptr inbounds [300 x i32], [300 x i32]* %4, i64 0, i64 %42
  %44 = load i32, i32* %43, align 4
  %45 = load i32, i32* %6, align 4
  %46 = icmp slt i32 %44, %45
  br i1 %46, label %47, label %52

47:                                               ; preds = %40
  %48 = load i32, i32* %3, align 4
  %49 = sext i32 %48 to i64
  %50 = getelementptr inbounds [300 x i32], [300 x i32]* %4, i64 0, i64 %49
  %51 = load i32, i32* %50, align 4
  store i32 %51, i32* %6, align 4
  br label %52

52:                                               ; preds = %47, %40
  %53 = load i32, i32* %7, align 4
  %54 = load i32, i32* %3, align 4
  %55 = sext i32 %54 to i64
  %56 = getelementptr inbounds [300 x i32], [300 x i32]* %4, i64 0, i64 %55
  %57 = load i32, i32* %56, align 4
  %58 = add nsw i32 %53, %57
  store i32 %58, i32* %7, align 4
  br label %59

59:                                               ; preds = %52
  %60 = load i32, i32* %3, align 4
  %61 = add nsw i32 %60, 1
  store i32 %61, i32* %3, align 4
  br label %19

62:                                               ; preds = %19
  %63 = load i32, i32* %7, align 4
  %64 = sitofp i32 %63 to float
  store float %64, float* %8, align 4
  %65 = load float, float* %8, align 4
  %66 = load i32, i32* %2, align 4
  %67 = sitofp i32 %66 to float
  %68 = fdiv float %65, %67
  store float %68, float* %8, align 4
  %69 = load i32, i32* %5, align 4
  %70 = sitofp i32 %69 to float
  %71 = load float, float* %8, align 4
  %72 = fsub float %70, %71
  %73 = load float, float* %8, align 4
  %74 = load i32, i32* %6, align 4
  %75 = sitofp i32 %74 to float
  %76 = fsub float %73, %75
  %77 = fsub float %72, %76
  %78 = fpext float %77 to double
  %79 = call double @llvm.fabs.f64(double %78)
  %80 = fcmp olt double %79, 1.000000e-03
  br i1 %80, label %81, label %85

81:                                               ; preds = %62
  %82 = load i32, i32* %6, align 4
  %83 = load i32, i32* %5, align 4
  %84 = call i32 (i8*, ...) @printf(i8* getelementptr inbounds ([6 x i8], [6 x i8]* @.str.1, i64 0, i64 0), i32 %82, i32 %83)
  br label %109

85:                                               ; preds = %62
  %86 = load i32, i32* %5, align 4
  %87 = load i32, i32* %6, align 4
  %88 = add nsw i32 %86, %87
  %89 = sitofp i32 %88 to float
  %90 = load float, float* %8, align 4
  %91 = fmul float 2.000000e+00, %90
  %92 = fcmp ogt float %89, %91
  br i1 %92, label %93, label %96

93:                                               ; preds = %85
  %94 = load i32, i32* %5, align 4
  %95 = call i32 (i8*, ...) @printf(i8* getelementptr inbounds ([3 x i8], [3 x i8]* @.str, i64 0, i64 0), i32 %94)
  br label %108

96:                                               ; preds = %85
  %97 = load i32, i32* %5, align 4
  %98 = load i32, i32* %6, align 4
  %99 = add nsw i32 %97, %98
  %100 = sitofp i32 %99 to float
  %101 = load float, float* %8, align 4
  %102 = fmul float 2.000000e+00, %101
  %103 = fcmp olt float %100, %102
  br i1 %103, label %104, label %107

104:                                              ; preds = %96
  %105 = load i32, i32* %6, align 4
  %106 = call i32 (i8*, ...) @printf(i8* getelementptr inbounds ([3 x i8], [3 x i8]* @.str, i64 0, i64 0), i32 %105)
  br label %107

107:                                              ; preds = %104, %96
  br label %108

108:                                              ; preds = %107, %93
  br label %109

109:                                              ; preds = %108, %81
  ret i32 0
}

; Function Attrs: argmemonly nounwind willreturn
declare void @llvm.memset.p0i8.i64(i8* nocapture writeonly, i8, i64, i1 immarg) #1

declare dso_local i32 @__isoc99_scanf(i8*, ...) #2

; Function Attrs: nounwind readnone speculatable willreturn
declare double @llvm.fabs.f64(double) #3

declare dso_local i32 @printf(i8*, ...) #2


!llvm.module.flags = !{!0}
!llvm.ident = !{!1}

!0 = !{i32 1, !"wchar_size", i32 4}
!1 = !{!"clang version 10.0.0-4ubuntu1 "}
