; ModuleID = 'source-C-CXX/20/1526.c'
source_filename = "source-C-CXX/20/1526.c"
target datalayout = "e-m:e-p270:32:32-p271:32:32-p272:64:64-i64:64-f80:128-n8:16:32:64-S128"
target triple = "x86_64-pc-linux-gnu"

@.str = private unnamed_addr constant [3 x i8] c"%d\00", align 1
@.str.1 = private unnamed_addr constant [6 x i8] c"%d,%d\00", align 1

; Function Attrs: nofree nounwind sspstrong uwtable
define dso_local i32 @main() local_unnamed_addr #0 {
  %1 = alloca i32, align 4
  %2 = alloca [300 x i32], align 16
  %3 = bitcast i32* %1 to i8*
  call void @llvm.lifetime.start.p0i8(i64 4, i8* nonnull %3) #5
  %4 = bitcast [300 x i32]* %2 to i8*
  call void @llvm.lifetime.start.p0i8(i64 1200, i8* nonnull %4) #5
  call void @llvm.memset.p0i8.i64(i8* noundef nonnull align 16 dereferenceable(1200) %4, i8 0, i64 1200, i1 false)
  %5 = call i32 (i8*, ...) @__isoc99_scanf(i8* getelementptr inbounds ([3 x i8], [3 x i8]* @.str, i64 0, i64 0), i32* nonnull %1)
  %6 = getelementptr inbounds [300 x i32], [300 x i32]* %2, i64 0, i64 0
  %7 = call i32 (i8*, ...) @__isoc99_scanf(i8* getelementptr inbounds ([3 x i8], [3 x i8]* @.str, i64 0, i64 0), i32* nonnull %6)
  %8 = load i32, i32* %6, align 16, !tbaa !5
  %9 = load i32, i32* %1, align 4, !tbaa !5
  %10 = icmp sgt i32 %9, 1
  br i1 %10, label %11, label %28

11:                                               ; preds = %0, %11
  %12 = phi i64 [ %24, %11 ], [ 1, %0 ]
  %13 = phi i32 [ %23, %11 ], [ %8, %0 ]
  %14 = phi i32 [ %22, %11 ], [ %8, %0 ]
  %15 = phi i32 [ %20, %11 ], [ %8, %0 ]
  %16 = getelementptr inbounds [300 x i32], [300 x i32]* %2, i64 0, i64 %12
  %17 = call i32 (i8*, ...) @__isoc99_scanf(i8* getelementptr inbounds ([3 x i8], [3 x i8]* @.str, i64 0, i64 0), i32* nonnull %16)
  %18 = load i32, i32* %16, align 4, !tbaa !5
  %19 = icmp sgt i32 %18, %15
  %20 = select i1 %19, i32 %18, i32 %15
  %21 = icmp slt i32 %18, %14
  %22 = select i1 %21, i32 %18, i32 %14
  %23 = add nsw i32 %18, %13
  %24 = add nuw nsw i64 %12, 1
  %25 = load i32, i32* %1, align 4, !tbaa !5
  %26 = sext i32 %25 to i64
  %27 = icmp slt i64 %24, %26
  br i1 %27, label %11, label %28, !llvm.loop !9

28:                                               ; preds = %11, %0
  %29 = phi i32 [ %8, %0 ], [ %20, %11 ]
  %30 = phi i32 [ %8, %0 ], [ %22, %11 ]
  %31 = phi i32 [ %8, %0 ], [ %23, %11 ]
  %32 = phi i32 [ %9, %0 ], [ %25, %11 ]
  %33 = sitofp i32 %31 to float
  %34 = sitofp i32 %32 to float
  %35 = fdiv float %33, %34
  %36 = sitofp i32 %29 to float
  %37 = fsub float %36, %35
  %38 = sitofp i32 %30 to float
  %39 = fsub float %35, %38
  %40 = fsub float %37, %39
  %41 = call float @llvm.fabs.f32(float %40)
  %42 = fpext float %41 to double
  %43 = fcmp olt double %42, 1.000000e-03
  br i1 %43, label %44, label %46

44:                                               ; preds = %28
  %45 = call i32 (i8*, ...) @printf(i8* nonnull dereferenceable(1) getelementptr inbounds ([6 x i8], [6 x i8]* @.str.1, i64 0, i64 0), i32 %30, i32 %29)
  br label %57

46:                                               ; preds = %28
  %47 = add nsw i32 %30, %29
  %48 = sitofp i32 %47 to float
  %49 = fmul float %35, 2.000000e+00
  %50 = fcmp olt float %49, %48
  br i1 %50, label %51, label %53

51:                                               ; preds = %46
  %52 = call i32 (i8*, ...) @printf(i8* nonnull dereferenceable(1) getelementptr inbounds ([3 x i8], [3 x i8]* @.str, i64 0, i64 0), i32 %29)
  br label %57

53:                                               ; preds = %46
  %54 = fcmp ogt float %49, %48
  br i1 %54, label %55, label %57

55:                                               ; preds = %53
  %56 = call i32 (i8*, ...) @printf(i8* nonnull dereferenceable(1) getelementptr inbounds ([3 x i8], [3 x i8]* @.str, i64 0, i64 0), i32 %30)
  br label %57

57:                                               ; preds = %51, %55, %53, %44
  call void @llvm.lifetime.end.p0i8(i64 1200, i8* nonnull %4) #5
  call void @llvm.lifetime.end.p0i8(i64 4, i8* nonnull %3) #5
  ret i32 0
}

; Function Attrs: argmemonly mustprogress nofree nosync nounwind willreturn
declare void @llvm.lifetime.start.p0i8(i64 immarg, i8* nocapture) #1

; Function Attrs: argmemonly mustprogress nofree nounwind willreturn writeonly
declare void @llvm.memset.p0i8.i64(i8* nocapture writeonly, i8, i64, i1 immarg) #2

; Function Attrs: nofree nounwind
declare noundef i32 @__isoc99_scanf(i8* nocapture noundef readonly, ...) local_unnamed_addr #3

; Function Attrs: nofree nounwind
declare noundef i32 @printf(i8* nocapture noundef readonly, ...) local_unnamed_addr #3

; Function Attrs: argmemonly mustprogress nofree nosync nounwind willreturn
declare void @llvm.lifetime.end.p0i8(i64 immarg, i8* nocapture) #1

; Function Attrs: nofree nosync nounwind readnone speculatable willreturn
declare float @llvm.fabs.f32(float) #4


!llvm.module.flags = !{!0, !1, !2, !3}
!llvm.ident = !{!4}

!0 = !{i32 1, !"wchar_size", i32 4}
!1 = !{i32 7, !"PIC Level", i32 2}
!2 = !{i32 7, !"PIE Level", i32 2}
!3 = !{i32 7, !"uwtable", i32 1}
!4 = !{!"clang version 13.0.0"}
!5 = !{!6, !6, i64 0}
!6 = !{!"int", !7, i64 0}
!7 = !{!"omnipotent char", !8, i64 0}
!8 = !{!"Simple C/C++ TBAA"}
!9 = distinct !{!9, !10}
!10 = !{!"llvm.loop.mustprogress"}
